target datalayout = "e-m:e-p270:32:32-p271:32:32-p272:64:64-i64:64-i128:128-f80:128-n8:16:32:64-S128"
target triple = "x86_64-pc-linux-gnu"

%struct.mbedtls_poly1305_context = type { [4 x i32], [4 x i32], [5 x i32], [16 x i8], i64 }

; Function Attrs: alwaysinline nounwind uwtable
define internal i32 @mbedtls_get_unaligned_uint32(ptr noundef %0) #2 {
  %2 = alloca ptr, align 8
  %3 = alloca i32, align 4
  store ptr %0, ptr %2, align 8, !tbaa !15
  call void @llvm.lifetime.start.p0(i64 4, ptr %3) #8
  %4 = load ptr, ptr %2, align 8, !tbaa !15
  call void @llvm.memcpy.p0.p0.i64(ptr align 4 %3, ptr align 1 %4, i64 4, i1 false)
  %5 = load i32, ptr %3, align 4, !tbaa !10
  call void @llvm.lifetime.end.p0(i64 4, ptr %3) #8
  ret i32 %5
}

; Function Attrs: nounwind uwtable
define hidden i32 @mbedtls_poly1305_starts(ptr noundef %0, ptr noundef %1) #0 {
  %3 = alloca ptr, align 8
  %4 = alloca ptr, align 8
  store ptr %0, ptr %3, align 8, !tbaa !3
  store ptr %1, ptr %4, align 8, !tbaa !8
  %5 = load ptr, ptr %4, align 8, !tbaa !8
  %6 = getelementptr inbounds i8, ptr %5, i64 0
  %7 = call i32 @mbedtls_get_unaligned_uint32(ptr noundef %6)
  %8 = and i32 %7, 268435455
  %9 = load ptr, ptr %3, align 8, !tbaa !3
  %10 = getelementptr inbounds nuw %struct.mbedtls_poly1305_context, ptr %9, i32 0, i32 0
  %11 = getelementptr inbounds [4 x i32], ptr %10, i64 0, i64 0
  store i32 %8, ptr %11, align 8, !tbaa !10
  %12 = load ptr, ptr %4, align 8, !tbaa !8
  %13 = getelementptr inbounds i8, ptr %12, i64 4
  %14 = call i32 @mbedtls_get_unaligned_uint32(ptr noundef %13)
  %15 = and i32 %14, 268435452
  %16 = load ptr, ptr %3, align 8, !tbaa !3
  %17 = getelementptr inbounds nuw %struct.mbedtls_poly1305_context, ptr %16, i32 0, i32 0
  %18 = getelementptr inbounds [4 x i32], ptr %17, i64 0, i64 1
  store i32 %15, ptr %18, align 4, !tbaa !10
  %19 = load ptr, ptr %4, align 8, !tbaa !8
  %20 = getelementptr inbounds i8, ptr %19, i64 8
  %21 = call i32 @mbedtls_get_unaligned_uint32(ptr noundef %20)
  %22 = and i32 %21, 268435452
  %23 = load ptr, ptr %3, align 8, !tbaa !3
  %24 = getelementptr inbounds nuw %struct.mbedtls_poly1305_context, ptr %23, i32 0, i32 0
  %25 = getelementptr inbounds [4 x i32], ptr %24, i64 0, i64 2
  store i32 %22, ptr %25, align 8, !tbaa !10
  %26 = load ptr, ptr %4, align 8, !tbaa !8
  %27 = getelementptr inbounds i8, ptr %26, i64 12
  %28 = call i32 @mbedtls_get_unaligned_uint32(ptr noundef %27)
  %29 = and i32 %28, 268435452
  %30 = load ptr, ptr %3, align 8, !tbaa !3
  %31 = getelementptr inbounds nuw %struct.mbedtls_poly1305_context, ptr %30, i32 0, i32 0
  %32 = getelementptr inbounds [4 x i32], ptr %31, i64 0, i64 3
  store i32 %29, ptr %32, align 4, !tbaa !10
  %33 = load ptr, ptr %4, align 8, !tbaa !8
  %34 = getelementptr inbounds i8, ptr %33, i64 16
  %35 = call i32 @mbedtls_get_unaligned_uint32(ptr noundef %34)
  %36 = load ptr, ptr %3, align 8, !tbaa !3
  %37 = getelementptr inbounds nuw %struct.mbedtls_poly1305_context, ptr %36, i32 0, i32 1
  %38 = getelementptr inbounds [4 x i32], ptr %37, i64 0, i64 0
  store i32 %35, ptr %38, align 8, !tbaa !10
  %39 = load ptr, ptr %4, align 8, !tbaa !8
  %40 = getelementptr inbounds i8, ptr %39, i64 20
  %41 = call i32 @mbedtls_get_unaligned_uint32(ptr noundef %40)
  %42 = load ptr, ptr %3, align 8, !tbaa !3
  %43 = getelementptr inbounds nuw %struct.mbedtls_poly1305_context, ptr %42, i32 0, i32 1
  %44 = getelementptr inbounds [4 x i32], ptr %43, i64 0, i64 1
  store i32 %41, ptr %44, align 4, !tbaa !10
  %45 = load ptr, ptr %4, align 8, !tbaa !8
  %46 = getelementptr inbounds i8, ptr %45, i64 24
  %47 = call i32 @mbedtls_get_unaligned_uint32(ptr noundef %46)
  %48 = load ptr, ptr %3, align 8, !tbaa !3
  %49 = getelementptr inbounds nuw %struct.mbedtls_poly1305_context, ptr %48, i32 0, i32 1
  %50 = getelementptr inbounds [4 x i32], ptr %49, i64 0, i64 2
  store i32 %47, ptr %50, align 8, !tbaa !10
  %51 = load ptr, ptr %4, align 8, !tbaa !8
  %52 = getelementptr inbounds i8, ptr %51, i64 28
  %53 = call i32 @mbedtls_get_unaligned_uint32(ptr noundef %52)
  %54 = load ptr, ptr %3, align 8, !tbaa !3
  %55 = getelementptr inbounds nuw %struct.mbedtls_poly1305_context, ptr %54, i32 0, i32 1
  %56 = getelementptr inbounds [4 x i32], ptr %55, i64 0, i64 3
  store i32 %53, ptr %56, align 4, !tbaa !10
  %57 = load ptr, ptr %3, align 8, !tbaa !3
  %58 = getelementptr inbounds nuw %struct.mbedtls_poly1305_context, ptr %57, i32 0, i32 2
  %59 = getelementptr inbounds [5 x i32], ptr %58, i64 0, i64 0
  store i32 0, ptr %59, align 8, !tbaa !10
  %60 = load ptr, ptr %3, align 8, !tbaa !3
  %61 = getelementptr inbounds nuw %struct.mbedtls_poly1305_context, ptr %60, i32 0, i32 2
  %62 = getelementptr inbounds [5 x i32], ptr %61, i64 0, i64 1
  store i32 0, ptr %62, align 4, !tbaa !10
  %63 = load ptr, ptr %3, align 8, !tbaa !3
  %64 = getelementptr inbounds nuw %struct.mbedtls_poly1305_context, ptr %63, i32 0, i32 2
  %65 = getelementptr inbounds [5 x i32], ptr %64, i64 0, i64 2
  store i32 0, ptr %65, align 8, !tbaa !10
  %66 = load ptr, ptr %3, align 8, !tbaa !3
  %67 = getelementptr inbounds nuw %struct.mbedtls_poly1305_context, ptr %66, i32 0, i32 2
  %68 = getelementptr inbounds [5 x i32], ptr %67, i64 0, i64 3
  store i32 0, ptr %68, align 4, !tbaa !10
  %69 = load ptr, ptr %3, align 8, !tbaa !3
  %70 = getelementptr inbounds nuw %struct.mbedtls_poly1305_context, ptr %69, i32 0, i32 2
  %71 = getelementptr inbounds [5 x i32], ptr %70, i64 0, i64 4
  store i32 0, ptr %71, align 8, !tbaa !10
  %72 = load ptr, ptr %3, align 8, !tbaa !3
  %73 = getelementptr inbounds nuw %struct.mbedtls_poly1305_context, ptr %72, i32 0, i32 3
  %74 = getelementptr inbounds [16 x i8], ptr %73, i64 0, i64 0
  call void @mbedtls_platform_zeroize(ptr noundef %74, i64 noundef 16)
  %75 = load ptr, ptr %3, align 8, !tbaa !3
  %76 = getelementptr inbounds nuw %struct.mbedtls_poly1305_context, ptr %75, i32 0, i32 4
  store i64 0, ptr %76, align 8, !tbaa !12
  ret i32 0
}