; Function Attrs: nounwind uwtable
define hidden noundef i32 @mbedtls_poly1305_starts(ptr noundef initializes((0, 52)) %0, ptr noundef readonly captures(none) %1) local_unnamed_addr #0 {
  %.0.copyload.i = load i32, ptr %1, align 1
  %3 = and i32 %.0.copyload.i, 268435455
  store i32 %3, ptr %0, align 8, !tbaa !3
  %4 = getelementptr inbounds nuw i8, ptr %1, i64 4
  %.0.copyload.i23 = load i32, ptr %4, align 1
  %5 = and i32 %.0.copyload.i23, 268435452
  %6 = getelementptr inbounds nuw i8, ptr %0, i64 4
  store i32 %5, ptr %6, align 4, !tbaa !3
  %7 = getelementptr inbounds nuw i8, ptr %1, i64 8
  %.0.copyload.i24 = load i32, ptr %7, align 1
  %8 = and i32 %.0.copyload.i24, 268435452
  %9 = getelementptr inbounds nuw i8, ptr %0, i64 8
  store i32 %8, ptr %9, align 8, !tbaa !3
  %10 = getelementptr inbounds nuw i8, ptr %1, i64 12
  %.0.copyload.i25 = load i32, ptr %10, align 1
  %11 = and i32 %.0.copyload.i25, 268435452
  %12 = getelementptr inbounds nuw i8, ptr %0, i64 12
  store i32 %11, ptr %12, align 4, !tbaa !3
  %13 = getelementptr inbounds nuw i8, ptr %1, i64 16
  %.0.copyload.i26 = load i32, ptr %13, align 1
  %14 = getelementptr inbounds nuw i8, ptr %0, i64 16
  store i32 %.0.copyload.i26, ptr %14, align 8, !tbaa !3
  %15 = getelementptr inbounds nuw i8, ptr %1, i64 20
  %.0.copyload.i27 = load i32, ptr %15, align 1
  %16 = getelementptr inbounds nuw i8, ptr %0, i64 20
  store i32 %.0.copyload.i27, ptr %16, align 4, !tbaa !3
  %17 = getelementptr inbounds nuw i8, ptr %1, i64 24
  %.0.copyload.i28 = load i32, ptr %17, align 1
  %18 = getelementptr inbounds nuw i8, ptr %0, i64 24
  store i32 %.0.copyload.i28, ptr %18, align 8, !tbaa !3
  %19 = getelementptr inbounds nuw i8, ptr %1, i64 28
  %.0.copyload.i29 = load i32, ptr %19, align 1
  %20 = getelementptr inbounds nuw i8, ptr %0, i64 28
  store i32 %.0.copyload.i29, ptr %20, align 4, !tbaa !3
  %21 = getelementptr inbounds nuw i8, ptr %0, i64 32
  %22 = getelementptr inbounds nuw i8, ptr %0, i64 52
  tail call void @llvm.memset.p0.i64(ptr noundef nonnull align 8 dereferenceable(20) %21, i8 0, i64 20, i1 false)
  tail call void @mbedtls_platform_zeroize(ptr noundef nonnull %22, i64 noundef 16) #9
  %23 = getelementptr inbounds nuw i8, ptr %0, i64 72
  store i64 0, ptr %23, align 8, !tbaa !7
  ret i32 0
}